; Function Attrs: nounwind uwtable
define void @dtgtk_drawing_area_set_aspect_ratio(ptr noundef %0, double noundef %1) local_unnamed_addr #0 {
  %3 = load atomic i64, ptr @dtgtk_drawing_area_get_type.static_g_define_type_id seq_cst, align 8
  %.not.i.i = icmp eq i64 %3, 0
  br i1 %.not.i.i, label %4, label %DTGTK_DRAWING_AREA.exit

4:                                                ; preds = %2
  %5 = tail call i32 @g_once_init_enter(ptr noundef nonnull @dtgtk_drawing_area_get_type.static_g_define_type_id) #5
  %.not4.i.i = icmp eq i32 %5, 0
  br i1 %.not4.i.i, label %DTGTK_DRAWING_AREA.exit, label %6

6:                                                ; preds = %4
  %7 = tail call fastcc i64 @dtgtk_drawing_area_get_type_once()
  tail call void @g_once_init_leave(ptr noundef nonnull @dtgtk_drawing_area_get_type.static_g_define_type_id, i64 noundef %7) #5
  br label %DTGTK_DRAWING_AREA.exit

DTGTK_DRAWING_AREA.exit:                          ; preds = %2, %4, %6
  %8 = load i64, ptr @dtgtk_drawing_area_get_type.static_g_define_type_id, align 8, !tbaa !6
  %9 = tail call ptr @g_type_check_instance_cast(ptr noundef %0, i64 noundef %8) #5
  %10 = getelementptr inbounds nuw i8, ptr %9, i64 40
  store double %1, ptr %10, align 8, !tbaa !10
  %11 = getelementptr inbounds nuw i8, ptr %9, i64 48
  store i32 -1, ptr %11, align 8, !tbaa !22
  tail call void @gtk_widget_queue_resize(ptr noundef %0) #5
  ret void
}